(lp1
(lp2
S'seq1'
p3
aS'AAAAACCCCCGGGGGTTTTT'
p4
aa(lp5
S'seq2'
p6
aS'TAAAACCCCCGGGGGTTTGT'
p7
aa(lp8
S'seq3'
p9
aS'TGAAACCCCCCGGGGTTTTT'
p10
aa(lp11
S'seq4'
p12
aS'AAAAACCACCGGGGGTTTTA'
p13
aa.(dp1
S'0,1,2|3'
p2
(dp3
S'count'
p4
I2
sS'sites'
p5
(lp6
I7
aI19
assS'0,3|1,2'
p7
(dp8
g4
I1
sg5
(lp9
I0
assS'0,1,2,3'
p10
(dp11
g4
I14
sg5
(lp12
I2
aI3
aI4
aI5
aI6
aI8
aI9
aI11
aI12
aI13
aI14
aI15
aI16
aI17
assS'0,2,3|1'
p13
(dp14
g4
I1
sg5
(lp15
I18
assS'0,1,3|2'
p16
(dp17
g4
I2
sg5
(lp18
I1
aI10
ass.