(dp1
S'0,1,2,3'
p2
(dp3
S'count'
p4
I14
sS'sites'
p5
(lp6
I2
aI3
aI4
aI5
aI6
aI8
aI9
aI11
aI12
aI13
aI14
aI15
aI16
aI17
assS'0,3|1,2'
p7
(dp8
g4
I1
sg5
(lp9
I0
assS'0,1,2|3'
p10
(dp11
g4
I2
sg5
(lp12
I7
aI19
ass.