(dp1
S'0,4|1|2,3'
p2
(dp3
S'count'
p4
I4
sS'sites'
p5
(lp6
I379
aI420
aI709
aI1079
assS'0,1,3,4|2'
p7
(dp8
g4
I24
sg5
(lp9
I89
aI138
aI288
aI293
aI487
aI532
aI554
aI556
aI566
aI575
aI588
aI628
aI688
aI702
aI736
aI756
aI823
aI834
aI874
aI1001
aI1002
aI1005
aI1217
aI1241
assS'0,2,4|1,3'
p10
(dp11
g4
I26
sg5
(lp12
I93
aI103
aI127
aI326
aI327
aI328
aI334
aI335
aI336
aI467
aI470
aI547
aI598
aI611
aI613
aI878
aI933
aI937
aI971
aI998
aI1063
aI1074
aI1075
aI1137
aI1212
aI1246
assS'0,1,3|2,4'
p13
(dp14
g4
I6
sg5
(lp15
I472
aI595
aI893
aI900
aI1058
aI1122
assS'0|1|2|3,4'
p16
(dp17
g4
I1
sg5
(lp18
I87
assS'0,3,4|1,2'
p19
(dp20
g4
I2
sg5
(lp21
I280
aI299
assS'0,3|1,2|4'
p22
(dp23
g4
I3
sg5
(lp24
I509
aI713
aI1096
assS'0,1,3|2|4'
p25
(dp26
g4
I3
sg5
(lp27
I473
aI522
aI1226
assS'0,4|1,2,3'
p28
(dp29
g4
I8
sg5
(lp30
I42
aI423
aI715
aI1069
aI1109
aI1112
aI1127
aI1130
assS'0,2|1,3|4'
p31
(dp32
g4
I6
sg5
(lp33
I352
aI477
aI514
aI523
aI850
aI1046
assS'0,4|1,3|2'
p34
(dp35
g4
I6
sg5
(lp36
I316
aI321
aI344
aI1044
aI1057
aI1095
assS'0|1|2,3,4'
p37
(dp38
g4
I6
sg5
(lp39
I56
aI468
aI483
aI535
aI717
aI1233
assS'0,1|2,4|3'
p40
(dp41
g4
I2
sg5
(lp42
I1048
aI1091
assS'0|1,4|2,3'
p43
(dp44
g4
I2
sg5
(lp45
I373
aI1098
assS'0,1,2,4|3'
p46
(dp47
g4
I41
sg5
(lp48
I6
aI86
aI141
aI150
aI154
aI167
aI177
aI192
aI194
aI202
aI215
aI225
aI246
aI287
aI294
aI305
aI318
aI342
aI353
aI431
aI441
aI510
aI526
aI559
aI582
aI585
aI661
aI675
aI701
aI706
aI730
aI737
aI859
aI861
aI877
aI936
aI961
aI999
aI1064
aI1073
aI1224
assS'0|1,2,3|4'
p49
(dp50
g4
I4
sg5
(lp51
I536
aI561
aI623
aI1229
assS'0|1,3,4|2'
p52
(dp53
g4
I6
sg5
(lp54
I455
aI508
aI640
aI649
aI684
aI1230
ass.