(dp1
S'0,1|2,3|4'
p2
(dp3
S'count'
p4
I1
sS'sites'
p5
(lp6
I1087
assS'0|1,2|3|4'
p7
(dp8
g4
I2
sg5
(lp9
I134
aI624
assS'0,2|1,4|3'
p10
(dp11
g4
I5
sg5
(lp12
I29
aI88
aI268
aI371
aI712
assS'0|1,3|2,4'
p13
(dp14
g4
I5
sg5
(lp15
I372
aI437
aI625
aI1025
aI1164
assS'0,1|2,3,4'
p16
(dp17
g4
I2
sg5
(lp18
I46
aI507
assS'0,3|1|2,4'
p19
(dp20
g4
I3
sg5
(lp21
I114
aI466
aI527
assS'0,2,3|1|4'
p22
(dp23
g4
I9
sg5
(lp24
I113
aI173
aI350
aI938
aI959
aI969
aI974
aI1061
aI1066
assS'0,1,2,3|4'
p25
(dp26
g4
I22
sg5
(lp27
I70
aI99
aI123
aI203
aI212
aI313
aI317
aI343
aI385
aI471
aI478
aI512
aI521
aI530
aI578
aI934
aI990
aI1043
aI1047
aI1071
aI1092
aI1222
assS'0,2,4|1|3'
p28
(dp29
g4
I13
sg5
(lp30
I94
aI126
aI135
aI469
aI491
aI503
aI524
aI534
aI558
aI586
aI622
aI626
aI860
assS'0,4|1,2|3'
p31
(dp32
g4
I1
sg5
(lp33
I1228
assS'0,1,4|2|3'
p34
(dp35
g4
I3
sg5
(lp36
I133
aI1218
aI1240
assS'0,2,4|1,3'
p37
(dp38
g4
I26
sg5
(lp39
I93
aI103
aI127
aI326
aI327
aI328
aI334
aI335
aI336
aI467
aI470
aI547
aI598
aI611
aI613
aI878
aI933
aI937
aI971
aI998
aI1063
aI1074
aI1075
aI1137
aI1212
aI1246
assS'0,1,3|2,4'
p40
(dp41
g4
I6
sg5
(lp42
I472
aI595
aI893
aI900
aI1058
aI1122
assS'0|1|2|3,4'
p43
(dp44
g4
I1
sg5
(lp45
I87
assS'0,4|1,3|2'
p46
(dp47
g4
I6
sg5
(lp48
I316
aI321
aI344
aI1044
aI1057
aI1095
assS'0,1,3|2|4'
p49
(dp50
g4
I3
sg5
(lp51
I473
aI522
aI1226
assS'0|1|2,3,4'
p52
(dp53
g4
I6
sg5
(lp54
I56
aI468
aI483
aI535
aI717
aI1233
assS'0,2|1,3|4'
p55
(dp56
g4
I6
sg5
(lp57
I352
aI477
aI514
aI523
aI850
aI1046
assS'0,3,4|1,2'
p58
(dp59
g4
I2
sg5
(lp60
I280
aI299
assS'0|1,4|2,3'
p61
(dp62
g4
I2
sg5
(lp63
I373
aI1098
assS'0,1,2,4|3'
p64
(dp65
g4
I41
sg5
(lp66
I6
aI86
aI141
aI150
aI154
aI167
aI177
aI192
aI194
aI202
aI215
aI225
aI246
aI287
aI294
aI305
aI318
aI342
aI353
aI431
aI441
aI510
aI526
aI559
aI582
aI585
aI661
aI675
aI701
aI706
aI730
aI737
aI859
aI861
aI877
aI936
aI961
aI999
aI1064
aI1073
aI1224
assS'0,4|1|2,3'
p67
(dp68
g4
I4
sg5
(lp69
I379
aI420
aI709
aI1079
assS'0,1|2,4|3'
p70
(dp71
g4
I2
sg5
(lp72
I1048
aI1091
assS'0,3|1,2|4'
p73
(dp74
g4
I3
sg5
(lp75
I509
aI713
aI1096
assS'0|1,2,3|4'
p76
(dp77
g4
I4
sg5
(lp78
I536
aI561
aI623
aI1229
assS'0,1,3,4|2'
p79
(dp80
g4
I24
sg5
(lp81
I89
aI138
aI288
aI293
aI487
aI532
aI554
aI556
aI566
aI575
aI588
aI628
aI688
aI702
aI736
aI756
aI823
aI834
aI874
aI1001
aI1002
aI1005
aI1217
aI1241
assS'0|1,3,4|2'
p82
(dp83
g4
I6
sg5
(lp84
I455
aI508
aI640
aI649
aI684
aI1230
assS'0,4|1,2,3'
p85
(dp86
g4
I8
sg5
(lp87
I42
aI423
aI715
aI1069
aI1109
aI1112
aI1127
aI1130
assS'0|1,2,3,4'
p88
(dp89
g4
I60
sg5
(lp90
I5
aI55
aI189
aI249
aI258
aI276
aI302
aI330
aI378
aI421
aI432
aI435
aI453
aI462
aI475
aI476
aI516
aI517
aI540
aI541
aI542
aI583
aI600
aI621
aI633
aI635
aI695
aI708
aI711
aI716
aI784
aI800
aI812
aI818
aI832
aI847
aI947
aI949
aI965
aI1004
aI1011
aI1020
aI1031
aI1040
aI1099
aI1100
aI1103
aI1118
aI1145
aI1152
aI1153
aI1155
aI1157
aI1168
aI1170
aI1172
aI1185
aI1195
aI1219
aI1271
assS'0,2|1|3,4'
p91
(dp92
g4
I2
sg5
(lp93
I620
aI1053
assS'0,2,3,4|1'
p94
(dp95
g4
I56
sg5
(lp96
I25
aI43
aI51
aI74
aI75
aI76
aI92
aI95
aI97
aI106
aI107
aI112
aI116
aI125
aI142
aI143
aI144
aI149
aI159
aI178
aI195
aI243
aI479
aI481
aI492
aI502
aI511
aI513
aI571
aI647
aI686
aI703
aI705
aI707
aI710
aI714
aI731
aI735
aI749
aI940
aI957
aI1009
aI1045
aI1065
aI1068
aI1072
aI1094
aI1105
aI1136
aI1158
aI1167
aI1225
aI1231
aI1232
aI1237
aI1264
assS'0,1,2|3|4'
p97
(dp98
g4
I2
sg5
(lp99
I546
aI614
assS'0,2|1|3|4'
p100
(dp101
g4
I3
sg5
(lp102
I370
aI1017
aI1223
assS'0,1,2,3,4'
p103
(dp104
g4
I833
sg5
(lp105
I0
aI1
aI2
aI3
aI4
aI8
aI9
aI10
aI11
aI12
aI13
aI14
aI15
aI16
aI17
aI18
aI19
aI20
aI21
aI22
aI23
aI24
aI26
aI27
aI28
aI30
aI31
aI32
aI33
aI34
aI35
aI36
aI37
aI38
aI39
aI40
aI41
aI44
aI45
aI49
aI50
aI52
aI53
aI54
aI57
aI58
aI59
aI60
aI61
aI62
aI63
aI64
aI65
aI66
aI67
aI68
aI69
aI71
aI72
aI73
aI77
aI79
aI80
aI81
aI82
aI84
aI85
aI91
aI96
aI98
aI100
aI101
aI102
aI108
aI109
aI110
aI111
aI117
aI118
aI119
aI120
aI121
aI122
aI124
aI128
aI129
aI136
aI137
aI139
aI140
aI145
aI146
aI147
aI151
aI152
aI153
aI155
aI156
aI158
aI160
aI161
aI162
aI163
aI164
aI165
aI166
aI168
aI169
aI170
aI171
aI172
aI174
aI175
aI176
aI179
aI180
aI181
aI182
aI183
aI184
aI186
aI188
aI190
aI191
aI193
aI196
aI197
aI198
aI199
aI200
aI201
aI204
aI205
aI206
aI207
aI208
aI209
aI210
aI211
aI213
aI214
aI217
aI218
aI219
aI220
aI221
aI222
aI223
aI224
aI227
aI228
aI230
aI231
aI232
aI233
aI234
aI235
aI236
aI237
aI238
aI239
aI240
aI241
aI244
aI247
aI248
aI250
aI251
aI252
aI253
aI254
aI255
aI256
aI257
aI259
aI260
aI261
aI262
aI263
aI264
aI265
aI266
aI267
aI270
aI271
aI272
aI273
aI274
aI275
aI277
aI281
aI282
aI283
aI284
aI285
aI286
aI289
aI291
aI292
aI295
aI296
aI297
aI298
aI303
aI304
aI306
aI307
aI308
aI309
aI310
aI311
aI312
aI314
aI315
aI319
aI320
aI322
aI323
aI324
aI325
aI329
aI331
aI332
aI333
aI337
aI338
aI339
aI340
aI341
aI345
aI346
aI347
aI354
aI355
aI357
aI359
aI360
aI361
aI362
aI363
aI364
aI365
aI366
aI367
aI368
aI369
aI375
aI377
aI381
aI382
aI383
aI384
aI386
aI387
aI388
aI389
aI391
aI392
aI393
aI394
aI395
aI396
aI397
aI398
aI399
aI400
aI401
aI402
aI403
aI404
aI405
aI406
aI407
aI408
aI409
aI410
aI411
aI412
aI413
aI414
aI416
aI417
aI418
aI422
aI424
aI425
aI426
aI427
aI428
aI429
aI433
aI434
aI436
aI438
aI440
aI442
aI443
aI444
aI445
aI446
aI447
aI448
aI449
aI450
aI451
aI452
aI454
aI458
aI460
aI461
aI463
aI464
aI465
aI474
aI480
aI482
aI484
aI485
aI486
aI489
aI490
aI493
aI494
aI495
aI496
aI497
aI498
aI499
aI500
aI501
aI504
aI505
aI519
aI520
aI528
aI529
aI531
aI538
aI543
aI544
aI550
aI551
aI552
aI553
aI555
aI557
aI560
aI562
aI563
aI564
aI565
aI567
aI568
aI569
aI570
aI572
aI573
aI574
aI576
aI577
aI579
aI580
aI581
aI587
aI589
aI590
aI591
aI592
aI593
aI594
aI596
aI597
aI601
aI602
aI604
aI605
aI606
aI607
aI609
aI616
aI617
aI618
aI619
aI629
aI630
aI631
aI632
aI634
aI636
aI637
aI638
aI641
aI642
aI643
aI644
aI645
aI646
aI650
aI651
aI652
aI653
aI654
aI655
aI656
aI658
aI659
aI660
aI662
aI663
aI664
aI665
aI666
aI667
aI668
aI669
aI670
aI671
aI672
aI673
aI674
aI676
aI677
aI678
aI679
aI680
aI681
aI682
aI683
aI687
aI690
aI691
aI692
aI693
aI694
aI696
aI697
aI698
aI704
aI719
aI721
aI722
aI723
aI724
aI725
aI726
aI727
aI728
aI729
aI732
aI733
aI734
aI740
aI741
aI742
aI743
aI744
aI745
aI746
aI747
aI748
aI750
aI751
aI752
aI753
aI754
aI755
aI758
aI759
aI760
aI761
aI762
aI763
aI766
aI767
aI768
aI769
aI770
aI771
aI772
aI773
aI774
aI775
aI776
aI777
aI778
aI779
aI780
aI781
aI782
aI783
aI785
aI786
aI787
aI788
aI789
aI790
aI791
aI792
aI793
aI794
aI795
aI796
aI797
aI798
aI799
aI801
aI802
aI803
aI804
aI805
aI806
aI807
aI808
aI809
aI811
aI813
aI814
aI815
aI816
aI817
aI819
aI820
aI821
aI822
aI824
aI825
aI827
aI828
aI830
aI833
aI835
aI836
aI837
aI838
aI839
aI840
aI841
aI842
aI843
aI844
aI845
aI846
aI848
aI849
aI851
aI852
aI853
aI854
aI855
aI856
aI857
aI858
aI862
aI863
aI864
aI865
aI866
aI867
aI868
aI870
aI871
aI872
aI873
aI875
aI876
aI879
aI880
aI881
aI882
aI883
aI884
aI885
aI886
aI887
aI888
aI889
aI890
aI891
aI892
aI894
aI895
aI896
aI897
aI898
aI899
aI901
aI902
aI903
aI904
aI905
aI906
aI907
aI908
aI909
aI910
aI911
aI912
aI913
aI914
aI915
aI916
aI917
aI918
aI919
aI920
aI921
aI922
aI923
aI924
aI925
aI926
aI927
aI928
aI929
aI930
aI931
aI932
aI935
aI941
aI942
aI943
aI944
aI945
aI946
aI948
aI950
aI951
aI952
aI953
aI954
aI955
aI956
aI960
aI962
aI963
aI964
aI966
aI967
aI968
aI970
aI972
aI973
aI975
aI976
aI977
aI978
aI979
aI980
aI981
aI982
aI983
aI985
aI986
aI987
aI988
aI989
aI991
aI992
aI993
aI994
aI995
aI996
aI1000
aI1006
aI1007
aI1010
aI1012
aI1013
aI1014
aI1016
aI1018
aI1019
aI1021
aI1022
aI1023
aI1024
aI1026
aI1027
aI1028
aI1029
aI1030
aI1032
aI1034
aI1035
aI1036
aI1037
aI1038
aI1039
aI1041
aI1042
aI1049
aI1050
aI1051
aI1052
aI1054
aI1056
aI1059
aI1060
aI1062
aI1067
aI1070
aI1076
aI1077
aI1078
aI1080
aI1081
aI1082
aI1083
aI1085
aI1088
aI1089
aI1090
aI1097
aI1101
aI1102
aI1104
aI1106
aI1107
aI1108
aI1110
aI1113
aI1115
aI1116
aI1117
aI1119
aI1120
aI1121
aI1123
aI1124
aI1126
aI1129
aI1131
aI1132
aI1133
aI1134
aI1135
aI1138
aI1139
aI1140
aI1141
aI1142
aI1143
aI1144
aI1146
aI1147
aI1148
aI1149
aI1150
aI1151
aI1154
aI1156
aI1159
aI1160
aI1161
aI1162
aI1163
aI1165
aI1166
aI1169
aI1171
aI1173
aI1174
aI1175
aI1176
aI1177
aI1178
aI1179
aI1180
aI1181
aI1182
aI1183
aI1184
aI1186
aI1187
aI1188
aI1189
aI1190
aI1191
aI1192
aI1193
aI1194
aI1196
aI1197
aI1198
aI1199
aI1200
aI1201
aI1202
aI1203
aI1204
aI1205
aI1206
aI1207
aI1208
aI1209
aI1210
aI1211
aI1213
aI1214
aI1215
aI1220
aI1221
aI1234
aI1235
aI1236
aI1238
aI1239
aI1242
aI1243
aI1244
aI1245
aI1247
aI1248
aI1249
aI1250
aI1251
aI1252
aI1253
aI1254
aI1255
aI1256
aI1257
aI1258
aI1259
aI1260
aI1261
aI1262
aI1263
aI1265
aI1267
aI1268
aI1269
aI1272
assS'0,1,4|2,3'
p106
(dp107
g4
I10
sg5
(lp108
I83
aI216
aI358
aI439
aI599
aI610
aI718
aI1003
aI1111
aI1128
assS'0|1,4|2|3'
p109
(dp110
g4
I4
sg5
(lp111
I131
aI349
aI539
aI1227
assS'0|1|2,4|3'
p112
(dp113
g4
I7
sg5
(lp114
I525
aI537
aI545
aI615
aI699
aI739
aI984
assS'0,1,2|3,4'
p115
(dp116
g4
I3
sg5
(lp117
I48
aI939
aI958
assS'0,3|1,2,4'
p118
(dp119
g4
I12
sg5
(lp120
I7
aI47
aI105
aI229
aI242
aI380
aI419
aI430
aI459
aI506
aI657
aI720
assS'0,2,3|1,4'
p121
(dp122
g4
I24
sg5
(lp123
I78
aI148
aI269
aI290
aI348
aI356
aI376
aI390
aI415
aI457
aI488
aI518
aI533
aI584
aI627
aI689
aI869
aI997
aI1008
aI1015
aI1055
aI1084
aI1216
aI1266
assS'0,3,4|1|2'
p124
(dp125
g4
I8
sg5
(lp126
I104
aI115
aI548
aI612
aI700
aI738
aI765
aI1086
assS'0,2|1,3,4'
p127
(dp128
g4
I22
sg5
(lp129
I90
aI130
aI157
aI185
aI278
aI279
aI300
aI301
aI515
aI549
aI603
aI608
aI648
aI685
aI810
aI826
aI829
aI831
aI1033
aI1093
aI1114
aI1125
assS'0|1,2,4|3'
p130
(dp131
g4
I11
sg5
(lp132
I132
aI187
aI226
aI245
aI351
aI374
aI456
aI639
aI757
aI764
aI1270
ass.