(dp1
S'0,1,3|2'
p2
(dp3
S'count'
p4
I1
sS'sites'
p5
(lp6
I12
assS'0,1,2,3'
p7
(dp8
g4
I12
sg5
(lp9
I0
aI1
aI2
aI4
aI5
aI6
aI8
aI9
aI10
aI11
aI14
aI16
assS'0|1|2|3'
p10
(dp11
g4
I1
sg5
(lp12
I18
assS'0,2,3|1'
p13
(dp14
g4
I2
sg5
(lp15
I7
aI13
assS'0|1,2,3'
p16
(dp17
g4
I1
sg5
(lp18
I17
assS'0,1|2,3'
p19
(dp20
g4
I1
sg5
(lp21
I15
assS'0,1,2|3'
p22
(dp23
g4
I1
sg5
(lp24
I3
ass.