(dp1
S'0|1|2|3'
p2
(dp3
S'count'
p4
I1
sS'rate'
p5
F0.41666666666666663
sS'sites'
p6
(lp7
I18
assS'0,1,2,3'
p8
(dp9
g4
I12
sg5
F1
sg6
(lp10
I0
aI1
aI2
aI4
aI5
aI6
aI8
aI9
aI10
aI11
aI14
aI16
assS'0,1,3|2'
p11
(dp12
g4
I1
sg5
F0.58333333333333326
sg6
(lp13
I12
ass.